target datalayout = "e-m:e-p270:32:32-p271:32:32-p272:64:64-i64:64-i128:128-f80:128-n8:16:32:64-S128"
target triple = "x86_64-unknown-linux-gnu"

%"class.icu_75::Formattable" = type { %"class.icu_75::UObject", %union.anon, ptr, ptr, i32, %"class.icu_75::UnicodeString" }
%"class.icu_75::UObject" = type { ptr }
%union.anon = type { %struct.anon }
%struct.anon = type { ptr, i32 }
%"class.icu_75::UnicodeString" = type { %"class.icu_75::Replaceable", %"union.icu_75::UnicodeString::StackBufferOrFields" }
%"class.icu_75::Replaceable" = type { %"class.icu_75::UObject" }
%"union.icu_75::UnicodeString::StackBufferOrFields" = type { %struct.anon.1, [32 x i8] }
%struct.anon.1 = type { i16, i32, i32, ptr }

; Function Attrs: mustprogress nounwind uwtable
define linkonce_odr noundef i64 @_ZNK6icu_7511Formattable8getInt64Ev(ptr noundef nonnull align 8 dereferenceable(112) %this) #0 comdat align 2 {
entry:
  %this.addr = alloca ptr, align 8
  store ptr %this, ptr %this.addr, align 8
  %this1 = load ptr, ptr %this.addr, align 8
  %fValue = getelementptr inbounds %"class.icu_75::Formattable", ptr %this1, i32 0, i32 1
  %0 = load i64, ptr %fValue, align 8
  ret i64 %0
}

; Function Attrs: mustprogress nounwind uwtable
define linkonce_odr noundef i32 @_ZNK6icu_7511Formattable7getLongEv(ptr noundef nonnull align 8 dereferenceable(112) %this) #0 comdat align 2 {
entry:
  %this.addr = alloca ptr, align 8
  store ptr %this, ptr %this.addr, align 8
  %this1 = load ptr, ptr %this.addr, align 8
  %fValue = getelementptr inbounds %"class.icu_75::Formattable", ptr %this1, i32 0, i32 1
  %0 = load i64, ptr %fValue, align 8
  %conv = trunc i64 %0 to i32
  ret i32 %conv
}

; Function Attrs: mustprogress nounwind uwtable
define linkonce_odr noundef double @_ZNK6icu_7511Formattable9getDoubleEv(ptr noundef nonnull align 8 dereferenceable(112) %this) #0 comdat align 2 {
entry:
  %this.addr = alloca ptr, align 8
  store ptr %this, ptr %this.addr, align 8
  %this1 = load ptr, ptr %this.addr, align 8
  %fValue = getelementptr inbounds %"class.icu_75::Formattable", ptr %this1, i32 0, i32 1
  %0 = load double, ptr %fValue, align 8
  ret double %0
}

; Function Attrs: mustprogress uwtable
define void @_ZNK6icu_7511Formattable23populateDecimalQuantityERNS_6number4impl15DecimalQuantityER10UErrorCode(ptr noundef nonnull align 8 dereferenceable(112) %this, ptr noundef nonnull align 8 dereferenceable(66) %output, ptr noundef nonnull align 4 dereferenceable(4) %status) #1 align 2 {
entry:
  %this.addr = alloca ptr, align 8
  %output.addr = alloca ptr, align 8
  %status.addr = alloca ptr, align 8
  store ptr %this, ptr %this.addr, align 8
  store ptr %output, ptr %output.addr, align 8
  store ptr %status, ptr %status.addr, align 8
  %this1 = load ptr, ptr %this.addr, align 8
  %fDecimalQuantity = getelementptr inbounds %"class.icu_75::Formattable", ptr %this1, i32 0, i32 3
  %0 = load ptr, ptr %fDecimalQuantity, align 8
  %cmp = icmp ne ptr %0, null
  br i1 %cmp, label %if.then, label %if.end

if.then:                                          ; preds = %entry
  %fDecimalQuantity2 = getelementptr inbounds %"class.icu_75::Formattable", ptr %this1, i32 0, i32 3
  %1 = load ptr, ptr %fDecimalQuantity2, align 8
  %2 = load ptr, ptr %output.addr, align 8
  %call = call noundef nonnull align 8 dereferenceable(66) ptr @_ZN6icu_756number4impl15DecimalQuantityaSERKS2_(ptr noundef nonnull align 8 dereferenceable(66) %2, ptr noundef nonnull align 8 dereferenceable(66) %1)
  br label %sw.epilog

if.end:                                           ; preds = %entry
  %fType = getelementptr inbounds %"class.icu_75::Formattable", ptr %this1, i32 0, i32 4
  %3 = load i32, ptr %fType, align 8
  switch i32 %3, label %sw.default [
    i32 1, label %sw.bb
    i32 2, label %sw.bb5
    i32 5, label %sw.bb8
  ]

sw.bb:                                            ; preds = %if.end
  %4 = load ptr, ptr %output.addr, align 8
  %call3 = call noundef double @_ZNK6icu_7511Formattable9getDoubleEv(ptr noundef nonnull align 8 dereferenceable(112) %this1)
  %call4 = call noundef nonnull align 8 dereferenceable(66) ptr @_ZN6icu_756number4impl15DecimalQuantity11setToDoubleEd(ptr noundef nonnull align 8 dereferenceable(66) %4, double noundef %call3)
  %5 = load ptr, ptr %output.addr, align 8
  call void @_ZN6icu_756number4impl15DecimalQuantity15roundToInfinityEv(ptr noundef nonnull align 8 dereferenceable(66) %5)
  br label %sw.epilog

sw.bb5:                                           ; preds = %if.end
  %6 = load ptr, ptr %output.addr, align 8
  %call6 = call noundef i32 @_ZNK6icu_7511Formattable7getLongEv(ptr noundef nonnull align 8 dereferenceable(112) %this1)
  %call7 = call noundef nonnull align 8 dereferenceable(66) ptr @_ZN6icu_756number4impl15DecimalQuantity8setToIntEi(ptr noundef nonnull align 8 dereferenceable(66) %6, i32 noundef %call6)
  br label %sw.epilog

sw.bb8:                                           ; preds = %if.end
  %7 = load ptr, ptr %output.addr, align 8
  %call9 = call noundef i64 @_ZNK6icu_7511Formattable8getInt64Ev(ptr noundef nonnull align 8 dereferenceable(112) %this1)
  %call10 = call noundef nonnull align 8 dereferenceable(66) ptr @_ZN6icu_756number4impl15DecimalQuantity9setToLongEl(ptr noundef nonnull align 8 dereferenceable(66) %7, i64 noundef %call9)
  br label %sw.epilog

sw.default:                                       ; preds = %if.end
  %8 = load ptr, ptr %status.addr, align 8
  store i32 27, ptr %8, align 4
  br label %sw.epilog

sw.epilog:                                        ; preds = %sw.default, %sw.bb8, %sw.bb5, %sw.bb, %if.then
  ret void
}