; Function Attrs: mustprogress uwtable
define void @_ZNK6icu_7511Formattable23populateDecimalQuantityERNS_6number4impl15DecimalQuantityER10UErrorCode(ptr nocapture noundef nonnull readonly align 8 dereferenceable(112) %this, ptr noundef nonnull align 8 dereferenceable(66) %output, ptr nocapture noundef nonnull writeonly align 4 dereferenceable(4) %status) local_unnamed_addr #1 align 2 {
entry:
  %fDecimalQuantity = getelementptr inbounds i8, ptr %this, i64 32
  %0 = load ptr, ptr %fDecimalQuantity, align 8
  %cmp.not = icmp eq ptr %0, null
  br i1 %cmp.not, label %if.end, label %if.then

if.then:                                          ; preds = %entry
  %call = tail call noundef nonnull align 8 dereferenceable(66) ptr @_ZN6icu_756number4impl15DecimalQuantityaSERKS2_(ptr noundef nonnull align 8 dereferenceable(66) %output, ptr noundef nonnull align 8 dereferenceable(66) %0)
  br label %sw.epilog

if.end:                                           ; preds = %entry
  %fType = getelementptr inbounds i8, ptr %this, i64 40
  %1 = load i32, ptr %fType, align 8
  switch i32 %1, label %sw.default [
    i32 1, label %sw.bb
    i32 2, label %sw.bb5
    i32 5, label %sw.bb8
  ]

sw.bb:                                            ; preds = %if.end
  %fValue.i = getelementptr inbounds i8, ptr %this, i64 8
  %2 = load double, ptr %fValue.i, align 8
  %call4 = tail call noundef nonnull align 8 dereferenceable(66) ptr @_ZN6icu_756number4impl15DecimalQuantity11setToDoubleEd(ptr noundef nonnull align 8 dereferenceable(66) %output, double noundef %2)
  tail call void @_ZN6icu_756number4impl15DecimalQuantity15roundToInfinityEv(ptr noundef nonnull align 8 dereferenceable(66) %output)
  br label %sw.epilog

sw.bb5:                                           ; preds = %if.end
  %fValue.i5 = getelementptr inbounds i8, ptr %this, i64 8
  %3 = load i64, ptr %fValue.i5, align 8
  %conv.i = trunc i64 %3 to i32
  %call7 = tail call noundef nonnull align 8 dereferenceable(66) ptr @_ZN6icu_756number4impl15DecimalQuantity8setToIntEi(ptr noundef nonnull align 8 dereferenceable(66) %output, i32 noundef %conv.i)
  br label %sw.epilog

sw.bb8:                                           ; preds = %if.end
  %fValue.i6 = getelementptr inbounds i8, ptr %this, i64 8
  %4 = load i64, ptr %fValue.i6, align 8
  %call10 = tail call noundef nonnull align 8 dereferenceable(66) ptr @_ZN6icu_756number4impl15DecimalQuantity9setToLongEl(ptr noundef nonnull align 8 dereferenceable(66) %output, i64 noundef %4)
  br label %sw.epilog

sw.default:                                       ; preds = %if.end
  store i32 27, ptr %status, align 4
  br label %sw.epilog

sw.epilog:                                        ; preds = %sw.default, %sw.bb8, %sw.bb5, %sw.bb, %if.then
  ret void
}